; Function Attrs: mustprogress uwtable
define void @_ZNK6casadi16SparsityInternal7combineERKNS_8SparsityEbb(ptr dead_on_unwind noalias writable sret(%"class.casadi::Sparsity") align 8 %0, ptr noundef nonnull align 8 dereferenceable(56) %1, ptr noundef nonnull align 8 dereferenceable(8) %2, i1 noundef zeroext %3, i1 noundef zeroext %4) local_unnamed_addr #6 align 2 {
  %6 = load atomic i8, ptr @_ZGVZNK6casadi16SparsityInternal7combineERKNS_8SparsityEbbE7mapping acquire, align 8
  %7 = icmp eq i8 %6, 0
  br i1 %7, label %8, label %12, !prof !290

8:                                                ; preds = %5
  %9 = tail call i32 @__cxa_guard_acquire(ptr nonnull @_ZGVZNK6casadi16SparsityInternal7combineERKNS_8SparsityEbbE7mapping) #29
  %.not = icmp eq i32 %9, 0
  br i1 %.not, label %12, label %10

10:                                               ; preds = %8
  tail call void @llvm.memset.p0.i64(ptr noundef nonnull align 8 dereferenceable(24) @_ZZNK6casadi16SparsityInternal7combineERKNS_8SparsityEbbE7mapping, i8 0, i64 24, i1 false)
  %11 = tail call i32 @__cxa_atexit(ptr nonnull @_ZNSt6vectorIhSaIhEED2Ev, ptr nonnull @_ZZNK6casadi16SparsityInternal7combineERKNS_8SparsityEbbE7mapping, ptr nonnull @__dso_handle) #29
  tail call void @__cxa_guard_release(ptr nonnull @_ZGVZNK6casadi16SparsityInternal7combineERKNS_8SparsityEbbE7mapping) #29
  br label %12

12:                                               ; preds = %10, %8, %5
  %13 = tail call noundef zeroext i1 @_ZNK6casadi16SparsityInternal8is_equalERKNS_8SparsityE(ptr noundef nonnull align 8 dereferenceable(56) %1, ptr noundef nonnull align 8 dereferenceable(8) %2), !noalias !291
  br i1 %13, label %14, label %15

14:                                               ; preds = %12
  tail call void @_ZN6casadi12SharedObjectC2ERKS0_(ptr noundef nonnull align 8 dereferenceable(8) %0, ptr noundef nonnull align 8 dereferenceable(8) %2)
  br label %_ZNK6casadi16SparsityInternal11combineGen1ILb0EEENS_8SparsityERKS2_bbRSt6vectorIhSaIhEE.exit

15:                                               ; preds = %12
  br i1 %3, label %16, label %19

16:                                               ; preds = %15
  br i1 %4, label %17, label %18

17:                                               ; preds = %16
  tail call void @_ZNK6casadi16SparsityInternal10combineGenILb0ELb1ELb1EEENS_8SparsityERKS2_RSt6vectorIhSaIhEE(ptr dead_on_unwind writable sret(%"class.casadi::Sparsity") align 8 %0, ptr noundef nonnull align 8 dereferenceable(56) %1, ptr noundef nonnull align 8 dereferenceable(8) %2, ptr noundef nonnull align 8 dereferenceable(24) @_ZZNK6casadi16SparsityInternal7combineERKNS_8SparsityEbbE7mapping)
  br label %_ZNK6casadi16SparsityInternal11combineGen1ILb0EEENS_8SparsityERKS2_bbRSt6vectorIhSaIhEE.exit

18:                                               ; preds = %16
  tail call void @_ZNK6casadi16SparsityInternal10combineGenILb0ELb1ELb0EEENS_8SparsityERKS2_RSt6vectorIhSaIhEE(ptr dead_on_unwind writable sret(%"class.casadi::Sparsity") align 8 %0, ptr noundef nonnull align 8 dereferenceable(56) %1, ptr noundef nonnull align 8 dereferenceable(8) %2, ptr noundef nonnull align 8 dereferenceable(24) @_ZZNK6casadi16SparsityInternal7combineERKNS_8SparsityEbbE7mapping)
  br label %_ZNK6casadi16SparsityInternal11combineGen1ILb0EEENS_8SparsityERKS2_bbRSt6vectorIhSaIhEE.exit

19:                                               ; preds = %15
  br i1 %4, label %20, label %21

20:                                               ; preds = %19
  tail call void @_ZNK6casadi16SparsityInternal10combineGenILb0ELb0ELb1EEENS_8SparsityERKS2_RSt6vectorIhSaIhEE(ptr dead_on_unwind writable sret(%"class.casadi::Sparsity") align 8 %0, ptr noundef nonnull align 8 dereferenceable(56) %1, ptr noundef nonnull align 8 dereferenceable(8) %2, ptr noundef nonnull align 8 dereferenceable(24) @_ZZNK6casadi16SparsityInternal7combineERKNS_8SparsityEbbE7mapping)
  br label %_ZNK6casadi16SparsityInternal11combineGen1ILb0EEENS_8SparsityERKS2_bbRSt6vectorIhSaIhEE.exit

21:                                               ; preds = %19
  tail call void @_ZNK6casadi16SparsityInternal10combineGenILb0ELb0ELb0EEENS_8SparsityERKS2_RSt6vectorIhSaIhEE(ptr dead_on_unwind writable sret(%"class.casadi::Sparsity") align 8 %0, ptr noundef nonnull align 8 dereferenceable(56) %1, ptr noundef nonnull align 8 dereferenceable(8) %2, ptr noundef nonnull align 8 dereferenceable(24) @_ZZNK6casadi16SparsityInternal7combineERKNS_8SparsityEbbE7mapping)
  br label %_ZNK6casadi16SparsityInternal11combineGen1ILb0EEENS_8SparsityERKS2_bbRSt6vectorIhSaIhEE.exit

_ZNK6casadi16SparsityInternal11combineGen1ILb0EEENS_8SparsityERKS2_bbRSt6vectorIhSaIhEE.exit: ; preds = %14, %17, %18, %20, %21
  ret void
}